target datalayout = "e-m:e-p270:32:32-p271:32:32-p272:64:64-i64:64-i128:128-f80:128-n8:16:32:64-S128"
target triple = "x86_64-pc-linux-gnu"

%"class.clang::Decl.base" = type <{ ptr, %"class.llvm::PointerIntPair.337", %"class.llvm::PointerUnion", %"class.clang::SourceLocation", i32, i8 }>
%"class.llvm::PointerIntPair.337" = type { %"struct.llvm::detail::PunnedPointer.338" }
%"struct.llvm::detail::PunnedPointer.338" = type { [8 x i8] }
%"class.llvm::PointerUnion" = type { %"class.llvm::pointer_union_detail::PointerUnionMembers" }
%"class.llvm::pointer_union_detail::PointerUnionMembers" = type { %"class.llvm::pointer_union_detail::PointerUnionMembers.339" }
%"class.llvm::pointer_union_detail::PointerUnionMembers.339" = type { %"class.llvm::pointer_union_detail::PointerUnionMembers.340" }
%"class.llvm::pointer_union_detail::PointerUnionMembers.340" = type { %"class.llvm::PointerIntPair.341" }
%"class.llvm::PointerIntPair.341" = type { %"struct.llvm::detail::PunnedPointer.342" }
%"struct.llvm::detail::PunnedPointer.342" = type { [8 x i8] }
%"class.clang::SourceLocation" = type { i32 }
%"class.clang::LazyASTUnresolvedSet" = type { %"class.clang::ASTUnresolvedSet" }
%"class.clang::ASTUnresolvedSet" = type { %"struct.clang::ASTUnresolvedSet::DeclsTy" }
%"struct.clang::ASTUnresolvedSet::DeclsTy" = type { %"class.clang::ASTVector" }
%"class.clang::ASTVector" = type { ptr, ptr, %"class.llvm::PointerIntPair.343" }
%"class.llvm::PointerIntPair.343" = type { %"struct.llvm::detail::PunnedPointer.344" }
%"struct.llvm::detail::PunnedPointer.344" = type { [8 x i8] }
%"struct.clang::CXXRecordDecl::DefinitionData" = type { i64, i32, i32, i32, i32, %"struct.clang::LazyOffsetPtr", %"struct.clang::LazyOffsetPtr", %"class.clang::LazyASTUnresolvedSet", %"class.clang::LazyASTUnresolvedSet", ptr, %"struct.clang::LazyOffsetPtr.346" }
%"struct.clang::LazyOffsetPtr" = type { i64 }
%"struct.clang::LazyOffsetPtr.346" = type { i64 }
%"class.clang::CXXRecordDecl" = type { %"class.clang::RecordDecl", ptr, %"class.llvm::PointerUnion.358" }
%"class.clang::RecordDecl" = type { %"class.clang::TagDecl" }
%"class.clang::TagDecl" = type { %"class.clang::TypeDecl.base", %"class.clang::DeclContext", %"class.clang::Redeclarable", %"class.clang::SourceRange", %"class.llvm::PointerUnion.353" }
%"class.clang::TypeDecl.base" = type <{ %"class.clang::NamedDecl", ptr, %"class.clang::SourceLocation" }>
%"class.clang::NamedDecl" = type { %"class.clang::Decl.base", %"class.clang::DeclarationName" }
%"class.clang::DeclarationName" = type { i64 }
%"class.clang::DeclContext" = type { ptr, %union.anon.347, ptr, ptr }
%union.anon.347 = type { %"class.clang::DeclContext::RecordDeclBitfields" }
%"class.clang::DeclContext::RecordDeclBitfields" = type { i64 }
%"class.clang::Redeclarable" = type { %"class.clang::Redeclarable<clang::TagDecl>::DeclLink", ptr }
%"class.clang::Redeclarable<clang::TagDecl>::DeclLink" = type { %"class.llvm::PointerUnion.348" }
%"class.llvm::PointerUnion.348" = type { %"class.llvm::pointer_union_detail::PointerUnionMembers.349" }
%"class.llvm::pointer_union_detail::PointerUnionMembers.349" = type { %"class.llvm::pointer_union_detail::PointerUnionMembers.350" }
%"class.llvm::pointer_union_detail::PointerUnionMembers.350" = type { %"class.llvm::pointer_union_detail::PointerUnionMembers.351" }
%"class.llvm::pointer_union_detail::PointerUnionMembers.351" = type { %"class.llvm::PointerIntPair.352" }
%"class.llvm::PointerIntPair.352" = type { %"struct.llvm::detail::PunnedPointer.342" }
%"class.clang::SourceRange" = type { %"class.clang::SourceLocation", %"class.clang::SourceLocation" }
%"class.llvm::PointerUnion.353" = type { %"class.llvm::pointer_union_detail::PointerUnionMembers.354" }
%"class.llvm::pointer_union_detail::PointerUnionMembers.354" = type { %"class.llvm::pointer_union_detail::PointerUnionMembers.355" }
%"class.llvm::pointer_union_detail::PointerUnionMembers.355" = type { %"class.llvm::pointer_union_detail::PointerUnionMembers.356" }
%"class.llvm::pointer_union_detail::PointerUnionMembers.356" = type { %"class.llvm::PointerIntPair.357" }
%"class.llvm::PointerIntPair.357" = type { %"struct.llvm::detail::PunnedPointer.342" }
%"class.llvm::PointerUnion.358" = type { %"class.llvm::pointer_union_detail::PointerUnionMembers.359" }
%"class.llvm::pointer_union_detail::PointerUnionMembers.359" = type { %"class.llvm::pointer_union_detail::PointerUnionMembers.360" }
%"class.llvm::pointer_union_detail::PointerUnionMembers.360" = type { %"class.llvm::pointer_union_detail::PointerUnionMembers.361" }
%"class.llvm::pointer_union_detail::PointerUnionMembers.361" = type { %"class.llvm::PointerIntPair.362" }
%"class.llvm::PointerIntPair.362" = type { %"struct.llvm::detail::PunnedPointer.342" }
%"class.clang::DeclContext::FunctionDeclBitfields" = type <{ i16, i32, [2 x i8] }>

; Function Attrs: mustprogress nounwind uwtable
define linkonce_odr hidden noundef ptr @_ZN4llvm16cast_convert_valIN5clang10RecordDeclEPNS1_7TagDeclES4_E4doitEPKS3_(ptr noundef %0) #0 comdat align 2 {
  %2 = alloca ptr, align 8
  store ptr %0, ptr %2, align 8
  %3 = load ptr, ptr %2, align 8
  ret ptr %3
}

; Function Attrs: mustprogress nounwind uwtable
define linkonce_odr hidden noundef ptr @_ZN4llvm16cast_convert_valIN5clang13CXXRecordDeclEPNS1_10RecordDeclES4_E4doitEPKS3_(ptr noundef %0) #0 comdat align 2 {
  %2 = alloca ptr, align 8
  store ptr %0, ptr %2, align 8
  %3 = load ptr, ptr %2, align 8
  ret ptr %3
}

; Function Attrs: mustprogress nounwind uwtable
define linkonce_odr hidden noundef ptr @_ZN4llvm8CastInfoIN5clang10RecordDeclEPNS1_7TagDeclEvE6doCastERKS4_(ptr noundef nonnull align 8 dereferenceable(8) %0) #0 comdat align 2 {
  %2 = alloca ptr, align 8
  store ptr %0, ptr %2, align 8
  %3 = load ptr, ptr %2, align 8
  %4 = load ptr, ptr %3, align 8
  %5 = call noundef ptr @_ZN4llvm16cast_convert_valIN5clang10RecordDeclEPNS1_7TagDeclES4_E4doitEPKS3_(ptr noundef %4)
  ret ptr %5
}

; Function Attrs: mustprogress nounwind uwtable
define linkonce_odr hidden noundef ptr @_ZNK5clang12RedeclarableINS_7TagDeclEE20getNextRedeclarationEv(ptr noundef nonnull align 8 dereferenceable(16) %0) #0 comdat align 2 {
  %2 = alloca ptr, align 8
  store ptr %0, ptr %2, align 8
  %3 = load ptr, ptr %2, align 8
  %4 = getelementptr inbounds nuw %"class.clang::Redeclarable", ptr %3, i32 0, i32 0
  %5 = getelementptr inbounds i8, ptr %3, i64 -96
  %6 = call noundef ptr @_ZNK5clang12RedeclarableINS_7TagDeclEE8DeclLink11getPreviousEPKS1_(ptr noundef nonnull align 8 dereferenceable(8) %4, ptr noundef %5)
  ret ptr %6
}

; Function Attrs: mustprogress nounwind uwtable
define linkonce_odr hidden noundef ptr @_ZN5clang12RedeclarableINS_7TagDeclEE12getFirstDeclEv(ptr noundef nonnull align 8 dereferenceable(16) %0) #0 comdat align 2 {
  %2 = alloca ptr, align 8
  store ptr %0, ptr %2, align 8
  %3 = load ptr, ptr %2, align 8
  %4 = getelementptr inbounds nuw %"class.clang::Redeclarable", ptr %3, i32 0, i32 1
  %5 = load ptr, ptr %4, align 8
  ret ptr %5
}

; Function Attrs: mustprogress nounwind uwtable
define linkonce_odr hidden noundef ptr @_ZN4llvm8CastInfoIN5clang13CXXRecordDeclEPNS1_10RecordDeclEvE6doCastERKS4_(ptr noundef nonnull align 8 dereferenceable(8) %0) #0 comdat align 2 {
  %2 = alloca ptr, align 8
  store ptr %0, ptr %2, align 8
  %3 = load ptr, ptr %2, align 8
  %4 = load ptr, ptr %3, align 8
  %5 = call noundef ptr @_ZN4llvm16cast_convert_valIN5clang13CXXRecordDeclEPNS1_10RecordDeclES4_E4doitEPKS3_(ptr noundef %4)
  ret ptr %5
}

; Function Attrs: mustprogress nounwind uwtable
define linkonce_odr hidden noundef ptr @_ZN4llvm4castIN5clang10RecordDeclENS1_7TagDeclEEEDcPT0_(ptr noundef %0) #0 comdat {
  %2 = alloca ptr, align 8
  store ptr %0, ptr %2, align 8
  %3 = call noundef ptr @_ZN4llvm8CastInfoIN5clang10RecordDeclEPNS1_7TagDeclEvE6doCastERKS4_(ptr noundef nonnull align 8 dereferenceable(8) %2)
  ret ptr %3
}

; Function Attrs: mustprogress nounwind uwtable
define linkonce_odr hidden noundef ptr @_ZN5clang12RedeclarableINS_7TagDeclEE17getMostRecentDeclEv(ptr noundef nonnull align 8 dereferenceable(16) %0) #0 comdat align 2 {
  %2 = alloca ptr, align 8
  store ptr %0, ptr %2, align 8
  %3 = load ptr, ptr %2, align 8
  %4 = call noundef ptr @_ZN5clang12RedeclarableINS_7TagDeclEE12getFirstDeclEv(ptr noundef nonnull align 8 dereferenceable(16) %3)
  %5 = getelementptr inbounds i8, ptr %4, i64 96
  %6 = call noundef ptr @_ZNK5clang12RedeclarableINS_7TagDeclEE20getNextRedeclarationEv(ptr noundef nonnull align 8 dereferenceable(16) %5)
  ret ptr %6
}

; Function Attrs: mustprogress nounwind uwtable
define linkonce_odr hidden noundef ptr @_ZN4llvm4castIN5clang13CXXRecordDeclENS1_10RecordDeclEEEDcPT0_(ptr noundef %0) #0 comdat {
  %2 = alloca ptr, align 8
  store ptr %0, ptr %2, align 8
  %3 = call noundef ptr @_ZN4llvm8CastInfoIN5clang13CXXRecordDeclEPNS1_10RecordDeclEvE6doCastERKS4_(ptr noundef nonnull align 8 dereferenceable(8) %2)
  ret ptr %3
}

; Function Attrs: mustprogress nounwind uwtable
define linkonce_odr hidden noundef ptr @_ZN5clang10RecordDecl17getMostRecentDeclEv(ptr noundef nonnull align 8 dereferenceable(128) %0) #0 comdat align 2 {
  %2 = alloca ptr, align 8
  store ptr %0, ptr %2, align 8
  %3 = load ptr, ptr %2, align 8
  %4 = getelementptr inbounds i8, ptr %3, i64 96
  %5 = call noundef ptr @_ZN5clang12RedeclarableINS_7TagDeclEE17getMostRecentDeclEv(ptr noundef nonnull align 8 dereferenceable(16) %4)
  %6 = call noundef ptr @_ZN4llvm4castIN5clang10RecordDeclENS1_7TagDeclEEEDcPT0_(ptr noundef %5)
  ret ptr %6
}

; Function Attrs: mustprogress nounwind uwtable
define linkonce_odr hidden noundef ptr @_ZN5clang13CXXRecordDecl17getMostRecentDeclEv(ptr noundef nonnull align 8 dereferenceable(144) %0) #0 comdat align 2 {
  %2 = alloca ptr, align 8
  store ptr %0, ptr %2, align 8
  %3 = load ptr, ptr %2, align 8
  %4 = call noundef ptr @_ZN5clang10RecordDecl17getMostRecentDeclEv(ptr noundef nonnull align 8 dereferenceable(128) %3)
  %5 = call noundef ptr @_ZN4llvm4castIN5clang13CXXRecordDeclENS1_10RecordDeclEEEDcPT0_(ptr noundef %4)
  ret ptr %5
}

; Function Attrs: mustprogress nounwind uwtable
define linkonce_odr hidden noundef ptr @_ZNK5clang13CXXRecordDecl17getMostRecentDeclEv(ptr noundef nonnull align 8 dereferenceable(144) %0) #0 comdat align 2 {
  %2 = alloca ptr, align 8
  store ptr %0, ptr %2, align 8
  %3 = load ptr, ptr %2, align 8
  %4 = call noundef ptr @_ZN5clang13CXXRecordDecl17getMostRecentDeclEv(ptr noundef nonnull align 8 dereferenceable(144) %3)
  ret ptr %4
}

; Function Attrs: mustprogress nounwind uwtable
define linkonce_odr hidden noundef ptr @_ZNK5clang13CXXRecordDecl7dataPtrEv(ptr noundef nonnull align 8 dereferenceable(144) %0) #0 comdat align 2 {
  %2 = alloca ptr, align 8
  store ptr %0, ptr %2, align 8
  %3 = load ptr, ptr %2, align 8
  %4 = call noundef ptr @_ZNK5clang13CXXRecordDecl17getMostRecentDeclEv(ptr noundef nonnull align 8 dereferenceable(144) %3)
  %5 = getelementptr inbounds nuw %"class.clang::CXXRecordDecl", ptr %3, i32 0, i32 1
  %6 = load ptr, ptr %5, align 8
  ret ptr %6
}

; Function Attrs: mustprogress nounwind uwtable
define linkonce_odr hidden noundef nonnull align 8 dereferenceable(104) ptr @_ZNK5clang13CXXRecordDecl4dataEv(ptr noundef nonnull align 8 dereferenceable(144) %0) #0 comdat align 2 {
  %2 = alloca ptr, align 8
  %3 = alloca ptr, align 8
  store ptr %0, ptr %2, align 8
  %4 = load ptr, ptr %2, align 8
  %5 = call noundef ptr @_ZNK5clang13CXXRecordDecl7dataPtrEv(ptr noundef nonnull align 8 dereferenceable(144) %4)
  store ptr %5, ptr %3, align 8
  %6 = load ptr, ptr %3, align 8
  ret ptr %6
}

; Function Attrs: mustprogress nounwind uwtable
define linkonce_odr hidden noundef i32 @_ZNK5clang12FunctionDecl16getConstexprKindEv(ptr noundef nonnull align 8 dereferenceable(168) %0) #0 comdat align 2 {
  %2 = alloca ptr, align 8
  store ptr %0, ptr %2, align 8
  %3 = load ptr, ptr %2, align 8
  %4 = getelementptr inbounds i8, ptr %3, i64 72
  %5 = getelementptr inbounds nuw %"class.clang::DeclContext", ptr %4, i32 0, i32 1
  %6 = getelementptr inbounds nuw %"class.clang::DeclContext::FunctionDeclBitfields", ptr %5, i32 0, i32 1
  %7 = load i32, ptr %6, align 2
  %8 = lshr i32 %7, 15
  %9 = and i32 %8, 3
  %10 = zext i32 %9 to i64
  %11 = trunc i64 %10 to i32
  ret i32 %11
}

; Function Attrs: mustprogress nounwind uwtable
define linkonce_odr hidden noundef zeroext i1 @_ZNK5clang13CXXRecordDecl30defaultedDestructorIsConstexprEv(ptr noundef nonnull align 8 dereferenceable(144) %0) #0 comdat align 2 {
  %2 = alloca ptr, align 8
  store ptr %0, ptr %2, align 8
  %3 = load ptr, ptr %2, align 8
  %4 = call noundef nonnull align 8 dereferenceable(104) ptr @_ZNK5clang13CXXRecordDecl4dataEv(ptr noundef nonnull align 8 dereferenceable(144) %3)
  %5 = getelementptr inbounds nuw %"struct.clang::CXXRecordDecl::DefinitionData", ptr %4, i32 0, i32 1
  %6 = load i32, ptr %5, align 8
  %7 = lshr i32 %6, 4
  %8 = and i32 %7, 1
  %9 = icmp ne i32 %8, 0
  br i1 %9, label %10, label %17

10:                                               ; preds = %1
  %11 = call noundef nonnull align 8 dereferenceable(841) ptr @_ZNK5clang4Decl11getLangOptsEv(ptr noundef nonnull align 8 dereferenceable(33) %3) #13
  %12 = load i64, ptr %11, align 8
  %13 = lshr i64 %12, 15
  %14 = and i64 %13, 1
  %15 = trunc i64 %14 to i32
  %16 = icmp ne i32 %15, 0
  br label %17

17:                                               ; preds = %10, %1
  %18 = phi i1 [ false, %1 ], [ %16, %10 ]
  ret i1 %18
}

; Function Attrs: mustprogress nounwind uwtable
define linkonce_odr hidden noundef zeroext i1 @_ZNK5clang12FunctionDecl11isConstexprEv(ptr noundef nonnull align 8 dereferenceable(168) %0) #0 comdat align 2 {
  %2 = alloca ptr, align 8
  store ptr %0, ptr %2, align 8
  %3 = load ptr, ptr %2, align 8
  %4 = call noundef i32 @_ZNK5clang12FunctionDecl16getConstexprKindEv(ptr noundef nonnull align 8 dereferenceable(168) %3)
  %5 = icmp ne i32 %4, 0
  ret i1 %5
}

; Function Attrs: mustprogress nounwind uwtable
define dso_local noundef zeroext i1 @_ZNK5clang13CXXRecordDecl22hasConstexprDestructorEv(ptr noundef nonnull align 8 dereferenceable(144) %0) #0 align 2 {
  %2 = alloca ptr, align 8
  %3 = alloca ptr, align 8
  store ptr %0, ptr %2, align 8
  %4 = load ptr, ptr %2, align 8
  %5 = call noundef ptr @_ZNK5clang13CXXRecordDecl13getDestructorEv(ptr noundef nonnull align 8 dereferenceable(144) %4)
  store ptr %5, ptr %3, align 8
  %6 = load ptr, ptr %3, align 8
  %7 = icmp ne ptr %6, null
  br i1 %7, label %8, label %11

8:                                                ; preds = %1
  %9 = load ptr, ptr %3, align 8
  %10 = call noundef zeroext i1 @_ZNK5clang12FunctionDecl11isConstexprEv(ptr noundef nonnull align 8 dereferenceable(168) %9)
  br label %13

11:                                               ; preds = %1
  %12 = call noundef zeroext i1 @_ZNK5clang13CXXRecordDecl30defaultedDestructorIsConstexprEv(ptr noundef nonnull align 8 dereferenceable(144) %4)
  br label %13

13:                                               ; preds = %11, %8
  %14 = phi i1 [ %10, %8 ], [ %12, %11 ]
  ret i1 %14
}