; Function Attrs: mustprogress nounwind uwtable
define dso_local noundef zeroext i1 @_ZNK5clang13CXXRecordDecl22hasConstexprDestructorEv(ptr noundef nonnull align 8 dereferenceable(144) %0) local_unnamed_addr #1 align 2 {
  %2 = tail call noundef ptr @_ZNK5clang13CXXRecordDecl13getDestructorEv(ptr noundef nonnull align 8 dereferenceable(144) %0)
  %.not = icmp eq ptr %2, null
  br i1 %.not, label %8, label %3

3:                                                ; preds = %1
  %4 = getelementptr inbounds nuw i8, ptr %2, i64 82
  %5 = load i32, ptr %4, align 2
  %6 = and i32 %5, 98304
  %7 = icmp ne i32 %6, 0
  br label %_ZNK5clang13CXXRecordDecl30defaultedDestructorIsConstexprEv.exit

8:                                                ; preds = %1
  %9 = getelementptr inbounds nuw i8, ptr %0, i64 104
  %10 = load ptr, ptr %9, align 8
  %11 = getelementptr inbounds nuw i8, ptr %10, i64 96
  %12 = tail call noundef ptr @_ZNK5clang12RedeclarableINS_7TagDeclEE8DeclLink11getPreviousEPKS1_(ptr noundef nonnull align 8 dereferenceable(16) %11, ptr noundef nonnull %10)
  %13 = getelementptr inbounds nuw i8, ptr %0, i64 128
  %14 = load ptr, ptr %13, align 8
  %15 = getelementptr inbounds nuw i8, ptr %14, i64 8
  %16 = load i32, ptr %15, align 8
  %17 = and i32 %16, 16
  %.not.i = icmp eq i32 %17, 0
  br i1 %.not.i, label %_ZNK5clang13CXXRecordDecl30defaultedDestructorIsConstexprEv.exit, label %18

18:                                               ; preds = %8
  %19 = tail call noundef nonnull align 8 dereferenceable(841) ptr @_ZNK5clang4Decl11getLangOptsEv(ptr noundef nonnull align 8 dereferenceable(144) %0) #26
  %20 = load i64, ptr %19, align 8
  %21 = and i64 %20, 32768
  %22 = icmp ne i64 %21, 0
  br label %_ZNK5clang13CXXRecordDecl30defaultedDestructorIsConstexprEv.exit

_ZNK5clang13CXXRecordDecl30defaultedDestructorIsConstexprEv.exit: ; preds = %18, %8, %3
  %23 = phi i1 [ %7, %3 ], [ false, %8 ], [ %22, %18 ]
  ret i1 %23
}